target datalayout = "e-m:e-p270:32:32-p271:32:32-p272:64:64-i64:64-i128:128-f80:128-n8:16:32:64-S128"
target triple = "x86_64-unknown-linux-gnu"

%"class.icu_75::SharedObject" = type { %"class.icu_75::UObject", i32, %"struct.std::atomic", ptr }
%"class.icu_75::UObject" = type { ptr }
%"struct.std::atomic" = type { %"struct.std::__atomic_base" }
%"struct.std::__atomic_base" = type { i32 }
%"class.icu_75::Locale" = type <{ %"class.icu_75::UObject", [12 x i8], [6 x i8], [4 x i8], [2 x i8], i32, [4 x i8], ptr, [157 x i8], [3 x i8], ptr, i8, [7 x i8] }>
%"struct.icu_75::CollationCacheEntry" = type { %"class.icu_75::SharedObject", %"class.icu_75::Locale", ptr }

@_ZTVN6icu_7519CollationCacheEntryE = unnamed_addr constant { [5 x ptr] } { [5 x ptr] [ptr null, ptr @_ZTIN6icu_7519CollationCacheEntryE, ptr @_ZN6icu_7519CollationCacheEntryD1Ev, ptr @_ZN6icu_7519CollationCacheEntryD0Ev, ptr @_ZNK6icu_757UObject17getDynamicClassIDEv] }, align 8

; Function Attrs: mustprogress uwtable
define linkonce_odr void @_ZN6icu_7512SharedObject8clearPtrINS_18CollationTailoringEEEvRPKT_(ptr noundef nonnull align 8 dereferenceable(8) %ptr) #0 comdat align 2 {
entry:
  %ptr.addr = alloca ptr, align 8
  store ptr %ptr, ptr %ptr.addr, align 8
  %0 = load ptr, ptr %ptr.addr, align 8
  %1 = load ptr, ptr %0, align 8
  %cmp = icmp ne ptr %1, null
  br i1 %cmp, label %if.then, label %if.end

if.then:                                          ; preds = %entry
  %2 = load ptr, ptr %ptr.addr, align 8
  %3 = load ptr, ptr %2, align 8
  call void @_ZNK6icu_7512SharedObject9removeRefEv(ptr noundef nonnull align 8 dereferenceable(24) %3)
  %4 = load ptr, ptr %ptr.addr, align 8
  store ptr null, ptr %4, align 8
  br label %if.end

if.end:                                           ; preds = %if.then, %entry
  ret void
}

; Function Attrs: mustprogress nounwind uwtable
define void @_ZN6icu_7519CollationCacheEntryD2Ev(ptr noundef nonnull align 8 dereferenceable(256) %this) unnamed_addr #1 align 2 personality ptr @__gxx_personality_v0 {
entry:
  %this.addr = alloca ptr, align 8
  store ptr %this, ptr %this.addr, align 8
  %this1 = load ptr, ptr %this.addr, align 8
  store ptr getelementptr inbounds ({ [5 x ptr] }, ptr @_ZTVN6icu_7519CollationCacheEntryE, i32 0, i32 0, i32 2), ptr %this1, align 8
  %tailoring = getelementptr inbounds %"struct.icu_75::CollationCacheEntry", ptr %this1, i32 0, i32 2
  invoke void @_ZN6icu_7512SharedObject8clearPtrINS_18CollationTailoringEEEvRPKT_(ptr noundef nonnull align 8 dereferenceable(8) %tailoring)
          to label %invoke.cont unwind label %terminate.lpad

invoke.cont:                                      ; preds = %entry
  %validLocale = getelementptr inbounds %"struct.icu_75::CollationCacheEntry", ptr %this1, i32 0, i32 1
  call void @_ZN6icu_756LocaleD1Ev(ptr noundef nonnull align 8 dereferenceable(217) %validLocale) #5
  call void @_ZN6icu_7512SharedObjectD2Ev(ptr noundef nonnull align 8 dereferenceable(24) %this1) #5
  ret void

terminate.lpad:                                   ; preds = %entry
  %0 = landingpad { ptr, i32 }
          catch ptr null
  %1 = extractvalue { ptr, i32 } %0, 0
  call void @__clang_call_terminate(ptr %1) #6
  unreachable
}