; Function Attrs: mustprogress nounwind uwtable
define void @_ZN6icu_7519CollationCacheEntryD2Ev(ptr noundef nonnull align 8 dereferenceable(256) %this) unnamed_addr #3 align 2 personality ptr @__gxx_personality_v0 {
entry:
  store ptr getelementptr inbounds ({ [5 x ptr] }, ptr @_ZTVN6icu_7519CollationCacheEntryE, i64 0, i32 0, i64 2), ptr %this, align 8
  %tailoring = getelementptr inbounds i8, ptr %this, i64 248
  %0 = load ptr, ptr %tailoring, align 8
  %cmp.not.i = icmp eq ptr %0, null
  br i1 %cmp.not.i, label %invoke.cont, label %if.then.i

if.then.i:                                        ; preds = %entry
  invoke void @_ZNK6icu_7512SharedObject9removeRefEv(ptr noundef nonnull align 8 dereferenceable(24) %0)
          to label %.noexc unwind label %terminate.lpad

.noexc:                                           ; preds = %if.then.i
  store ptr null, ptr %tailoring, align 8
  br label %invoke.cont

invoke.cont:                                      ; preds = %.noexc, %entry
  %validLocale = getelementptr inbounds i8, ptr %this, i64 24
  tail call void @_ZN6icu_756LocaleD1Ev(ptr noundef nonnull align 8 dereferenceable(217) %validLocale) #9
  tail call void @_ZN6icu_7512SharedObjectD2Ev(ptr noundef nonnull align 8 dereferenceable(24) %this) #9
  ret void

terminate.lpad:                                   ; preds = %if.then.i
  %1 = landingpad { ptr, i32 }
          catch ptr null
  %2 = extractvalue { ptr, i32 } %1, 0
  tail call void @__clang_call_terminate(ptr %2) #10
  unreachable
}